(lp0
(S'cppflags'
p1
ccopy_reg
_reconstructor
p2
(cino.utils
SpaceList
p3
c__builtin__
list
p4
(lp5
S'-mmcu=atmega328p'
p6
aS'-DF_CPU=16000000L'
p7
aS'-DARDUINO=105'
p8
aS'-I/Applications/Arduino.app/Contents/Resources/Java/hardware/arduino/cores/arduino'
p9
aS'-ffunction-sections'
p10
aS'-fdata-sections'
p11
aS'-g'
p12
aS'-Os'
p13
aS'-w'
p14
aS'-I/Applications/Arduino.app/Contents/Resources/Java/hardware/arduino/variants/standard'
p15
aS'-Ilib/RF24'
p16
aS'-Ilib/RF24/tests'
p17
aS'-Ilib/RF24/tests/native'
p18
aS'-Ilib/RF24/tests/pingpair_blocking'
p19
aS'-Ilib/RF24/tests/pingpair_test'
p20
aS'-Ilib/RFID'
p21
aS'-I/Applications/Arduino.app/Contents/Resources/Java/libraries/SPI'
p22
aS'-I/Applications/Arduino.app/Contents/Resources/Java/libraries/SoftwareSerial'
p23
aS'-I/Applications/Arduino.app/Contents/Resources/Java/hardware/arduino/cores/arduino'
p24
aS'-I/Applications/Arduino.app/Contents/Resources/Java/hardware/arduino/cores/arduino/avr-libc'
p25
atp26
Rp27
tp28
a(S'cxx'
p29
S'/Applications/Arduino.app/Contents/Resources/Java/hardware/tools/avr/bin/avr-g++'
p30
tp31
a(S'arduino_libraries_dir'
p32
S'/Applications/Arduino.app/Contents/Resources/Java/libraries'
p33
tp34
a(S'avrdude'
p35
S'/Applications/Arduino.app/Contents/Resources/Java/hardware/tools/avr/bin/avrdude'
p36
tp37
a(S'ar'
p38
S'/Applications/Arduino.app/Contents/Resources/Java/hardware/tools/avr/bin/avr-ar'
p39
tp40
a(S'names'
p41
(dp42
S'cpp'
p43
S'%s.cpp'
p44
sS'obj'
p45
S'%s.o'
p46
sS'deps'
p47
S'%s.d'
p48
sS'lib'
p49
S'lib%s.a'
p50
stp51
a(S'ldflags'
p52
g2
(g3
g4
(lp53
g6
aS'-Wl,-Os'
p54
aS'-Wl,--gc-sections'
p55
atp56
Rp57
tp58
a(S'arduino_lib_version'
p59
g2
(cino.environment
Version
p60
c__builtin__
tuple
p61
(I1
I0
I5
tp62
tp63
Rp64
tp65
a(S'objcopy'
p66
S'/Applications/Arduino.app/Contents/Resources/Java/hardware/tools/avr/bin/avr-objcopy'
p67
tp68
a(S'board_models'
p69
cino.environment
BoardModels
p70
((lp71
(lp72
S'uno'
p73
a(dp74
S'build'
p75
(dp76
S'core'
p77
S'arduino'
p78
sS'mcu'
p79
S'atmega328p'
p80
sS'f_cpu'
p81
S'16000000L'
p82
sS'variant'
p83
S'standard'
p84
ssS'bootloader'
p85
(dp86
S'extended_fuses'
p87
S'0x05'
p88
sS'high_fuses'
p89
S'0xde'
p90
sS'low_fuses'
p91
S'0xff'
p92
sS'lock_bits'
p93
S'0x0F'
p94
sS'file'
p95
S'optiboot_atmega328.hex'
p96
sS'path'
p97
S'optiboot'
p98
sS'unlock_bits'
p99
S'0x3F'
p100
ssS'upload'
p101
(dp102
S'protocol'
p103
S'arduino'
p104
sS'maximum_size'
p105
S'32256'
p106
sS'speed'
p107
S'115200'
p108
ssS'name'
p109
S'Arduino Uno'
p110
saa(lp111
S'atmega328'
p112
a(dp113
S'build'
p114
(dp115
S'core'
p116
S'arduino'
p117
sS'mcu'
p118
S'atmega328p'
p119
sS'f_cpu'
p120
S'16000000L'
p121
sS'variant'
p122
S'standard'
p123
ssS'bootloader'
p124
(dp125
S'extended_fuses'
p126
S'0x05'
p127
sS'high_fuses'
p128
S'0xDA'
p129
sS'low_fuses'
p130
S'0xFF'
p131
sS'lock_bits'
p132
S'0x0F'
p133
sS'file'
p134
S'ATmegaBOOT_168_atmega328.hex'
p135
sS'path'
p136
S'atmega'
p137
sS'unlock_bits'
p138
S'0x3F'
p139
ssS'upload'
p140
(dp141
S'protocol'
p142
S'arduino'
p143
sS'maximum_size'
p144
S'30720'
p145
sS'speed'
p146
S'57600'
p147
ssS'name'
p148
S'Arduino Duemilanove w/ ATmega328'
p149
saa(lp150
S'diecimila'
p151
a(dp152
S'build'
p153
(dp154
S'core'
p155
S'arduino'
p156
sS'mcu'
p157
S'atmega168'
p158
sS'f_cpu'
p159
S'16000000L'
p160
sS'variant'
p161
S'standard'
p162
ssS'bootloader'
p163
(dp164
S'extended_fuses'
p165
S'0x00'
p166
sS'high_fuses'
p167
S'0xdd'
p168
sS'low_fuses'
p169
S'0xff'
p170
sS'lock_bits'
p171
S'0x0F'
p172
sS'file'
p173
S'ATmegaBOOT_168_diecimila.hex'
p174
sS'path'
p175
S'atmega'
p176
sS'unlock_bits'
p177
S'0x3F'
p178
ssS'upload'
p179
(dp180
S'protocol'
p181
S'arduino'
p182
sS'maximum_size'
p183
S'14336'
p184
sS'speed'
p185
S'19200'
p186
ssS'name'
p187
S'Arduino Diecimila or Duemilanove w/ ATmega168'
p188
saa(lp189
S'nano328'
p190
a(dp191
S'build'
p192
(dp193
S'core'
p194
S'arduino'
p195
sS'mcu'
p196
S'atmega328p'
p197
sS'f_cpu'
p198
S'16000000L'
p199
sS'variant'
p200
S'eightanaloginputs'
p201
ssS'bootloader'
p202
(dp203
S'extended_fuses'
p204
S'0x05'
p205
sS'high_fuses'
p206
S'0xDA'
p207
sS'low_fuses'
p208
S'0xFF'
p209
sS'lock_bits'
p210
S'0x0F'
p211
sS'file'
p212
S'ATmegaBOOT_168_atmega328.hex'
p213
sS'path'
p214
S'atmega'
p215
sS'unlock_bits'
p216
S'0x3F'
p217
ssS'upload'
p218
(dp219
S'protocol'
p220
S'arduino'
p221
sS'maximum_size'
p222
S'30720'
p223
sS'speed'
p224
S'57600'
p225
ssS'name'
p226
S'Arduino Nano w/ ATmega328'
p227
saa(lp228
S'nano'
p229
a(dp230
S'build'
p231
(dp232
S'core'
p233
S'arduino'
p234
sS'mcu'
p235
S'atmega168'
p236
sS'f_cpu'
p237
S'16000000L'
p238
sS'variant'
p239
S'eightanaloginputs'
p240
ssS'bootloader'
p241
(dp242
S'extended_fuses'
p243
S'0x00'
p244
sS'high_fuses'
p245
S'0xdd'
p246
sS'low_fuses'
p247
S'0xff'
p248
sS'lock_bits'
p249
S'0x0F'
p250
sS'file'
p251
S'ATmegaBOOT_168_diecimila.hex'
p252
sS'path'
p253
S'atmega'
p254
sS'unlock_bits'
p255
S'0x3F'
p256
ssS'upload'
p257
(dp258
S'protocol'
p259
S'arduino'
p260
sS'maximum_size'
p261
S'14336'
p262
sS'speed'
p263
S'19200'
p264
ssS'name'
p265
S'Arduino Nano w/ ATmega168'
p266
saa(lp267
S'mega2560'
p268
a(dp269
S'build'
p270
(dp271
S'core'
p272
S'arduino'
p273
sS'mcu'
p274
S'atmega2560'
p275
sS'f_cpu'
p276
S'16000000L'
p277
sS'variant'
p278
S'mega'
p279
ssS'bootloader'
p280
(dp281
S'extended_fuses'
p282
S'0xFD'
p283
sS'high_fuses'
p284
S'0xD8'
p285
sS'low_fuses'
p286
S'0xFF'
p287
sS'lock_bits'
p288
S'0x0F'
p289
sS'file'
p290
S'stk500boot_v2_mega2560.hex'
p291
sS'path'
p292
S'stk500v2'
p293
sS'unlock_bits'
p294
S'0x3F'
p295
ssS'upload'
p296
(dp297
S'protocol'
p298
S'wiring'
p299
sS'maximum_size'
p300
S'258048'
p301
sS'speed'
p302
S'115200'
p303
ssS'name'
p304
S'Arduino Mega 2560 or Mega ADK'
p305
saa(lp306
S'mega'
p307
a(dp308
S'build'
p309
(dp310
S'core'
p311
S'arduino'
p312
sS'mcu'
p313
S'atmega1280'
p314
sS'f_cpu'
p315
S'16000000L'
p316
sS'variant'
p317
S'mega'
p318
ssS'bootloader'
p319
(dp320
S'extended_fuses'
p321
S'0xF5'
p322
sS'high_fuses'
p323
S'0xDA'
p324
sS'low_fuses'
p325
S'0xFF'
p326
sS'lock_bits'
p327
S'0x0F'
p328
sS'file'
p329
S'ATmegaBOOT_168_atmega1280.hex'
p330
sS'path'
p331
S'atmega'
p332
sS'unlock_bits'
p333
S'0x3F'
p334
ssS'upload'
p335
(dp336
S'protocol'
p337
S'arduino'
p338
sS'maximum_size'
p339
S'126976'
p340
sS'speed'
p341
S'57600'
p342
ssS'name'
p343
S'Arduino Mega (ATmega1280)'
p344
saa(lp345
S'leonardo'
p346
a(dp347
S'build'
p348
(dp349
S'core'
p350
S'arduino'
p351
sS'f_cpu'
p352
S'16000000L'
p353
sS'vid'
p354
S'0x2341'
p355
sS'pid'
p356
S'0x8036'
p357
sS'variant'
p358
S'leonardo'
p359
sS'mcu'
p360
S'atmega32u4'
p361
ssS'bootloader'
p362
(dp363
S'extended_fuses'
p364
S'0xcb'
p365
sS'high_fuses'
p366
S'0xd8'
p367
sS'low_fuses'
p368
S'0xff'
p369
sS'lock_bits'
p370
S'0x2F'
p371
sS'file'
p372
S'Caterina-Leonardo.hex'
p373
sS'path'
p374
S'caterina'
p375
sS'unlock_bits'
p376
S'0x3F'
p377
ssS'upload'
p378
(dp379
S'protocol'
p380
S'avr109'
p381
sS'maximum_size'
p382
S'28672'
p383
sS'speed'
p384
S'57600'
p385
sS'disable_flushing'
p386
S'true'
p387
ssS'name'
p388
S'Arduino Leonardo'
p389
saa(lp390
S'esplora'
p391
a(dp392
S'build'
p393
(dp394
S'core'
p395
S'arduino'
p396
sS'f_cpu'
p397
S'16000000L'
p398
sS'vid'
p399
S'0x2341'
p400
sS'pid'
p401
S'0x803C'
p402
sS'variant'
p403
S'leonardo'
p404
sS'mcu'
p405
S'atmega32u4'
p406
ssS'bootloader'
p407
(dp408
S'extended_fuses'
p409
S'0xcb'
p410
sS'high_fuses'
p411
S'0xd8'
p412
sS'low_fuses'
p413
S'0xff'
p414
sS'lock_bits'
p415
S'0x2F'
p416
sS'file'
p417
S'Caterina-Esplora.hex'
p418
sS'path'
p419
S'caterina'
p420
sS'unlock_bits'
p421
S'0x3F'
p422
ssS'upload'
p423
(dp424
S'protocol'
p425
S'avr109'
p426
sS'maximum_size'
p427
S'28672'
p428
sS'speed'
p429
S'57600'
p430
sS'disable_flushing'
p431
S'true'
p432
ssS'name'
p433
S'Arduino Esplora'
p434
saa(lp435
S'micro'
p436
a(dp437
S'build'
p438
(dp439
S'core'
p440
S'arduino'
p441
sS'f_cpu'
p442
S'16000000L'
p443
sS'vid'
p444
S'0x2341'
p445
sS'pid'
p446
S'0x8037'
p447
sS'variant'
p448
S'micro'
p449
sS'mcu'
p450
S'atmega32u4'
p451
ssS'bootloader'
p452
(dp453
S'extended_fuses'
p454
S'0xcb'
p455
sS'high_fuses'
p456
S'0xd8'
p457
sS'low_fuses'
p458
S'0xff'
p459
sS'lock_bits'
p460
S'0x2F'
p461
sS'file'
p462
S'Caterina-Micro.hex'
p463
sS'path'
p464
S'caterina'
p465
sS'unlock_bits'
p466
S'0x3F'
p467
ssS'upload'
p468
(dp469
S'protocol'
p470
S'avr109'
p471
sS'maximum_size'
p472
S'28672'
p473
sS'speed'
p474
S'57600'
p475
sS'disable_flushing'
p476
S'true'
p477
ssS'name'
p478
S'Arduino Micro'
p479
saa(lp480
S'mini328'
p481
a(dp482
S'build'
p483
(dp484
S'core'
p485
S'arduino'
p486
sS'mcu'
p487
S'atmega328p'
p488
sS'f_cpu'
p489
S'16000000L'
p490
sS'variant'
p491
S'eightanaloginputs'
p492
ssS'bootloader'
p493
(dp494
S'extended_fuses'
p495
S'0x05'
p496
sS'high_fuses'
p497
S'0xd8'
p498
sS'low_fuses'
p499
S'0xff'
p500
sS'lock_bits'
p501
S'0x0F'
p502
sS'file'
p503
S'optiboot_atmega328-Mini.hex'
p504
sS'path'
p505
S'optiboot'
p506
sS'unlock_bits'
p507
S'0x3F'
p508
ssS'upload'
p509
(dp510
S'protocol'
p511
S'arduino'
p512
sS'maximum_size'
p513
S'28672'
p514
sS'speed'
p515
S'115200'
p516
ssS'name'
p517
S'Arduino Mini w/ ATmega328'
p518
saa(lp519
S'mini'
p520
a(dp521
S'build'
p522
(dp523
S'core'
p524
S'arduino'
p525
sS'mcu'
p526
S'atmega168'
p527
sS'f_cpu'
p528
S'16000000L'
p529
sS'variant'
p530
S'eightanaloginputs'
p531
ssS'bootloader'
p532
(dp533
S'extended_fuses'
p534
S'0x00'
p535
sS'high_fuses'
p536
S'0xdd'
p537
sS'low_fuses'
p538
S'0xff'
p539
sS'lock_bits'
p540
S'0x0F'
p541
sS'file'
p542
S'ATmegaBOOT_168_ng.hex'
p543
sS'path'
p544
S'atmega'
p545
sS'unlock_bits'
p546
S'0x3F'
p547
ssS'upload'
p548
(dp549
S'protocol'
p550
S'arduino'
p551
sS'maximum_size'
p552
S'14336'
p553
sS'speed'
p554
S'19200'
p555
ssS'name'
p556
S'Arduino Mini w/ ATmega168'
p557
saa(lp558
S'ethernet'
p559
a(dp560
S'build'
p561
(dp562
S'variant'
p563
S'standard'
p564
sS'mcu'
p565
S'atmega328p'
p566
sS'f_cpu'
p567
S'16000000L'
p568
sS'core'
p569
S'arduino'
p570
ssS'bootloader'
p571
(dp572
S'extended_fuses'
p573
S'0x05'
p574
sS'high_fuses'
p575
S'0xde'
p576
sS'low_fuses'
p577
S'0xff'
p578
sS'lock_bits'
p579
S'0x0F'
p580
sS'file'
p581
S'optiboot_atmega328.hex'
p582
sS'path'
p583
S'optiboot'
p584
sS'unlock_bits'
p585
S'0x3F'
p586
ssS'upload'
p587
(dp588
S'protocol'
p589
S'arduino'
p590
sS'maximum_size'
p591
S'32256'
p592
sS'speed'
p593
S'115200'
p594
ssS'name'
p595
S'Arduino Ethernet'
p596
saa(lp597
S'fio'
p598
a(dp599
S'build'
p600
(dp601
S'core'
p602
S'arduino'
p603
sS'mcu'
p604
S'atmega328p'
p605
sS'f_cpu'
p606
S'8000000L'
p607
sS'variant'
p608
S'eightanaloginputs'
p609
ssS'bootloader'
p610
(dp611
S'extended_fuses'
p612
S'0x05'
p613
sS'high_fuses'
p614
S'0xDA'
p615
sS'low_fuses'
p616
S'0xFF'
p617
sS'lock_bits'
p618
S'0x0F'
p619
sS'file'
p620
S'ATmegaBOOT_168_atmega328_pro_8MHz.hex'
p621
sS'path'
p622
S'arduino:atmega'
p623
sS'unlock_bits'
p624
S'0x3F'
p625
ssS'upload'
p626
(dp627
S'protocol'
p628
S'arduino'
p629
sS'maximum_size'
p630
S'30720'
p631
sS'speed'
p632
S'57600'
p633
ssS'name'
p634
S'Arduino Fio'
p635
saa(lp636
S'bt328'
p637
a(dp638
S'build'
p639
(dp640
S'core'
p641
S'arduino'
p642
sS'mcu'
p643
S'atmega328p'
p644
sS'f_cpu'
p645
S'16000000L'
p646
sS'variant'
p647
S'eightanaloginputs'
p648
ssS'bootloader'
p649
(dp650
S'extended_fuses'
p651
S'0x05'
p652
sS'high_fuses'
p653
S'0xd8'
p654
sS'low_fuses'
p655
S'0xff'
p656
sS'lock_bits'
p657
S'0x0F'
p658
sS'file'
p659
S'ATmegaBOOT_168_atmega328_bt.hex'
p660
sS'path'
p661
S'bt'
p662
sS'unlock_bits'
p663
S'0x3F'
p664
ssS'upload'
p665
(dp666
S'protocol'
p667
S'arduino'
p668
sS'maximum_size'
p669
S'28672'
p670
sS'speed'
p671
S'19200'
p672
sS'disable_flushing'
p673
S'true'
p674
ssS'name'
p675
S'Arduino BT w/ ATmega328'
p676
saa(lp677
S'bt'
p678
a(dp679
S'build'
p680
(dp681
S'core'
p682
S'arduino'
p683
sS'mcu'
p684
S'atmega168'
p685
sS'f_cpu'
p686
S'16000000L'
p687
sS'variant'
p688
S'eightanaloginputs'
p689
ssS'bootloader'
p690
(dp691
S'extended_fuses'
p692
S'0x00'
p693
sS'high_fuses'
p694
S'0xdd'
p695
sS'low_fuses'
p696
S'0xff'
p697
sS'lock_bits'
p698
S'0x0F'
p699
sS'file'
p700
S'ATmegaBOOT_168.hex'
p701
sS'path'
p702
S'bt'
p703
sS'unlock_bits'
p704
S'0x3F'
p705
ssS'upload'
p706
(dp707
S'protocol'
p708
S'arduino'
p709
sS'maximum_size'
p710
S'14336'
p711
sS'speed'
p712
S'19200'
p713
sS'disable_flushing'
p714
S'true'
p715
ssS'name'
p716
S'Arduino BT w/ ATmega168'
p717
saa(lp718
S'LilyPadUSB'
p719
a(dp720
S'build'
p721
(dp722
S'core'
p723
S'arduino'
p724
sS'f_cpu'
p725
S'8000000L'
p726
sS'vid'
p727
S'0x1B4F'
p728
sS'pid'
p729
S'0x9208'
p730
sS'variant'
p731
S'leonardo'
p732
sS'mcu'
p733
S'atmega32u4'
p734
ssS'bootloader'
p735
(dp736
S'extended_fuses'
p737
S'0xce'
p738
sS'high_fuses'
p739
S'0xd8'
p740
sS'low_fuses'
p741
S'0xff'
p742
sS'lock_bits'
p743
S'0x2F'
p744
sS'file'
p745
S'Caterina-LilyPadUSB.hex'
p746
sS'path'
p747
S'caterina-LilyPadUSB'
p748
sS'unlock_bits'
p749
S'0x3F'
p750
ssS'upload'
p751
(dp752
S'protocol'
p753
S'avr109'
p754
sS'maximum_size'
p755
S'28672'
p756
sS'speed'
p757
S'57600'
p758
sS'disable_flushing'
p759
S'true'
p760
ssS'name'
p761
S'LilyPad Arduino USB'
p762
saa(lp763
S'lilypad328'
p764
a(dp765
S'build'
p766
(dp767
S'core'
p768
S'arduino'
p769
sS'mcu'
p770
S'atmega328p'
p771
sS'f_cpu'
p772
S'8000000L'
p773
sS'variant'
p774
S'standard'
p775
ssS'bootloader'
p776
(dp777
S'extended_fuses'
p778
S'0x05'
p779
sS'high_fuses'
p780
S'0xDA'
p781
sS'low_fuses'
p782
S'0xFF'
p783
sS'lock_bits'
p784
S'0x0F'
p785
sS'file'
p786
S'ATmegaBOOT_168_atmega328_pro_8MHz.hex'
p787
sS'path'
p788
S'atmega'
p789
sS'unlock_bits'
p790
S'0x3F'
p791
ssS'upload'
p792
(dp793
S'protocol'
p794
S'arduino'
p795
sS'maximum_size'
p796
S'30720'
p797
sS'speed'
p798
S'57600'
p799
ssS'name'
p800
S'LilyPad Arduino w/ ATmega328'
p801
saa(lp802
S'lilypad'
p803
a(dp804
S'build'
p805
(dp806
S'core'
p807
S'arduino'
p808
sS'mcu'
p809
S'atmega168'
p810
sS'f_cpu'
p811
S'8000000L'
p812
sS'variant'
p813
S'standard'
p814
ssS'bootloader'
p815
(dp816
S'extended_fuses'
p817
S'0x00'
p818
sS'high_fuses'
p819
S'0xdd'
p820
sS'low_fuses'
p821
S'0xe2'
p822
sS'lock_bits'
p823
S'0x0F'
p824
sS'file'
p825
S'LilyPadBOOT_168.hex'
p826
sS'path'
p827
S'lilypad'
p828
sS'unlock_bits'
p829
S'0x3F'
p830
ssS'upload'
p831
(dp832
S'protocol'
p833
S'arduino'
p834
sS'maximum_size'
p835
S'14336'
p836
sS'speed'
p837
S'19200'
p838
ssS'name'
p839
S'LilyPad Arduino w/ ATmega168'
p840
saa(lp841
S'pro5v328'
p842
a(dp843
S'build'
p844
(dp845
S'core'
p846
S'arduino'
p847
sS'mcu'
p848
S'atmega328p'
p849
sS'f_cpu'
p850
S'16000000L'
p851
sS'variant'
p852
S'standard'
p853
ssS'bootloader'
p854
(dp855
S'extended_fuses'
p856
S'0x05'
p857
sS'high_fuses'
p858
S'0xDA'
p859
sS'low_fuses'
p860
S'0xFF'
p861
sS'lock_bits'
p862
S'0x0F'
p863
sS'file'
p864
S'ATmegaBOOT_168_atmega328.hex'
p865
sS'path'
p866
S'atmega'
p867
sS'unlock_bits'
p868
S'0x3F'
p869
ssS'upload'
p870
(dp871
S'protocol'
p872
S'arduino'
p873
sS'maximum_size'
p874
S'30720'
p875
sS'speed'
p876
S'57600'
p877
ssS'name'
p878
S'Arduino Pro or Pro Mini (5V, 16 MHz) w/ ATmega328'
p879
saa(lp880
S'pro5v'
p881
a(dp882
S'build'
p883
(dp884
S'core'
p885
S'arduino'
p886
sS'mcu'
p887
S'atmega168'
p888
sS'f_cpu'
p889
S'16000000L'
p890
sS'variant'
p891
S'standard'
p892
ssS'bootloader'
p893
(dp894
S'extended_fuses'
p895
S'0x00'
p896
sS'high_fuses'
p897
S'0xdd'
p898
sS'low_fuses'
p899
S'0xff'
p900
sS'lock_bits'
p901
S'0x0F'
p902
sS'file'
p903
S'ATmegaBOOT_168_diecimila.hex'
p904
sS'path'
p905
S'atmega'
p906
sS'unlock_bits'
p907
S'0x3F'
p908
ssS'upload'
p909
(dp910
S'protocol'
p911
S'arduino'
p912
sS'maximum_size'
p913
S'14336'
p914
sS'speed'
p915
S'19200'
p916
ssS'name'
p917
S'Arduino Pro or Pro Mini (5V, 16 MHz) w/ ATmega168'
p918
saa(lp919
S'pro328'
p920
a(dp921
S'build'
p922
(dp923
S'core'
p924
S'arduino'
p925
sS'mcu'
p926
S'atmega328p'
p927
sS'f_cpu'
p928
S'8000000L'
p929
sS'variant'
p930
S'standard'
p931
ssS'bootloader'
p932
(dp933
S'extended_fuses'
p934
S'0x05'
p935
sS'high_fuses'
p936
S'0xDA'
p937
sS'low_fuses'
p938
S'0xFF'
p939
sS'lock_bits'
p940
S'0x0F'
p941
sS'file'
p942
S'ATmegaBOOT_168_atmega328_pro_8MHz.hex'
p943
sS'path'
p944
S'atmega'
p945
sS'unlock_bits'
p946
S'0x3F'
p947
ssS'upload'
p948
(dp949
S'protocol'
p950
S'arduino'
p951
sS'maximum_size'
p952
S'30720'
p953
sS'speed'
p954
S'57600'
p955
ssS'name'
p956
S'Arduino Pro or Pro Mini (3.3V, 8 MHz) w/ ATmega328'
p957
saa(lp958
S'pro'
p959
a(dp960
S'build'
p961
(dp962
S'core'
p963
S'arduino'
p964
sS'mcu'
p965
S'atmega168'
p966
sS'f_cpu'
p967
S'8000000L'
p968
sS'variant'
p969
S'standard'
p970
ssS'bootloader'
p971
(dp972
S'extended_fuses'
p973
S'0x00'
p974
sS'high_fuses'
p975
S'0xdd'
p976
sS'low_fuses'
p977
S'0xc6'
p978
sS'lock_bits'
p979
S'0x0F'
p980
sS'file'
p981
S'ATmegaBOOT_168_pro_8MHz.hex'
p982
sS'path'
p983
S'atmega'
p984
sS'unlock_bits'
p985
S'0x3F'
p986
ssS'upload'
p987
(dp988
S'protocol'
p989
S'arduino'
p990
sS'maximum_size'
p991
S'14336'
p992
sS'speed'
p993
S'19200'
p994
ssS'name'
p995
S'Arduino Pro or Pro Mini (3.3V, 8 MHz) w/ ATmega168'
p996
saa(lp997
S'atmega168'
p998
a(dp999
S'build'
p1000
(dp1001
S'core'
p1002
S'arduino'
p1003
sS'mcu'
p1004
S'atmega168'
p1005
sS'f_cpu'
p1006
S'16000000L'
p1007
sS'variant'
p1008
S'standard'
p1009
ssS'bootloader'
p1010
(dp1011
S'extended_fuses'
p1012
S'0x00'
p1013
sS'high_fuses'
p1014
S'0xdd'
p1015
sS'low_fuses'
p1016
S'0xff'
p1017
sS'lock_bits'
p1018
S'0x0F'
p1019
sS'file'
p1020
S'ATmegaBOOT_168_ng.hex'
p1021
sS'path'
p1022
S'atmega'
p1023
sS'unlock_bits'
p1024
S'0x3F'
p1025
ssS'upload'
p1026
(dp1027
S'protocol'
p1028
S'arduino'
p1029
sS'maximum_size'
p1030
S'14336'
p1031
sS'speed'
p1032
S'19200'
p1033
ssS'name'
p1034
S'Arduino NG or older w/ ATmega168'
p1035
saa(lp1036
S'atmega8'
p1037
a(dp1038
S'build'
p1039
(dp1040
S'core'
p1041
S'arduino'
p1042
sS'mcu'
p1043
S'atmega8'
p1044
sS'f_cpu'
p1045
S'16000000L'
p1046
sS'variant'
p1047
S'standard'
p1048
ssS'bootloader'
p1049
(dp1050
S'high_fuses'
p1051
S'0xca'
p1052
sS'low_fuses'
p1053
S'0xdf'
p1054
sS'lock_bits'
p1055
S'0x0F'
p1056
sS'file'
p1057
S'ATmegaBOOT-prod-firmware-2009-11-07.hex'
p1058
sS'path'
p1059
S'atmega8'
p1060
sS'unlock_bits'
p1061
S'0x3F'
p1062
ssS'upload'
p1063
(dp1064
S'protocol'
p1065
S'arduino'
p1066
sS'maximum_size'
p1067
S'7168'
p1068
sS'speed'
p1069
S'19200'
p1070
ssS'name'
p1071
S'Arduino NG or older w/ ATmega8'
p1072
saa(lp1073
S'robotControl'
p1074
a(dp1075
S'build'
p1076
(dp1077
S'core'
p1078
S'robot'
p1079
sS'f_cpu'
p1080
S'16000000L'
p1081
sS'vid'
p1082
S'0x2341'
p1083
sS'pid'
p1084
S'0x8038'
p1085
sS'variant'
p1086
S'robot_control'
p1087
sS'mcu'
p1088
S'atmega32u4'
p1089
ssS'bootloader'
p1090
(dp1091
S'extended_fuses'
p1092
S'0xcb'
p1093
sS'high_fuses'
p1094
S'0xd8'
p1095
sS'low_fuses'
p1096
S'0xff'
p1097
sS'lock_bits'
p1098
S'0x2F'
p1099
sS'file'
p1100
S'Caterina-Robot-Control.hex'
p1101
sS'path'
p1102
S'caterina-Arduino_Robot'
p1103
sS'unlock_bits'
p1104
S'0x3F'
p1105
ssS'upload'
p1106
(dp1107
S'protocol'
p1108
S'avr109'
p1109
sS'maximum_size'
p1110
S'28672'
p1111
sS'speed'
p1112
S'57600'
p1113
sS'disable_flushing'
p1114
S'true'
p1115
ssS'name'
p1116
S'Arduino Robot Control'
p1117
saa(lp1118
S'robotMotor'
p1119
a(dp1120
S'build'
p1121
(dp1122
S'core'
p1123
S'robot'
p1124
sS'f_cpu'
p1125
S'16000000L'
p1126
sS'vid'
p1127
S'0x2341'
p1128
sS'pid'
p1129
S'0x8039'
p1130
sS'variant'
p1131
S'robot_motor'
p1132
sS'mcu'
p1133
S'atmega32u4'
p1134
ssS'bootloader'
p1135
(dp1136
S'extended_fuses'
p1137
S'0xcb'
p1138
sS'high_fuses'
p1139
S'0xd8'
p1140
sS'low_fuses'
p1141
S'0xff'
p1142
sS'lock_bits'
p1143
S'0x2F'
p1144
sS'file'
p1145
S'Caterina-Robot-Motor.hex'
p1146
sS'path'
p1147
S'caterina-Arduino_Robot'
p1148
sS'unlock_bits'
p1149
S'0x3F'
p1150
ssS'upload'
p1151
(dp1152
S'protocol'
p1153
S'avr109'
p1154
sS'maximum_size'
p1155
S'28672'
p1156
sS'speed'
p1157
S'57600'
p1158
sS'disable_flushing'
p1159
S'true'
p1160
ssS'name'
p1161
S'Arduino Robot Motor'
p1162
saatp1163
Rp1164
(dp1165
S'default'
p1166
S'uno'
p1167
sbtp1168
a(S'used_libs'
p1169
(lp1170
S'lib/RF24'
p1171
aS'lib/RFID'
p1172
aS'/Applications/Arduino.app/Contents/Resources/Java/libraries/SPI'
p1173
aS'/Applications/Arduino.app/Contents/Resources/Java/libraries/SoftwareSerial'
p1174
aS'/Applications/Arduino.app/Contents/Resources/Java/hardware/arduino/cores/arduino'
p1175
atp1176
a(S'make'
p1177
S'/Applications/Arduino.app/Contents/Resources/Java/hardware/tools/avr/bin/make'
p1178
tp1179
a(S'build_dir'
p1180
S'.build/uno'
p1181
tp1182
a(S'cc'
p1183
S'/Applications/Arduino.app/Contents/Resources/Java/hardware/tools/avr/bin/avr-gcc'
p1184
tp1185
a(S'cflags'
p1186
g2
(g3
g4
(lp1187
tp1188
Rp1189
tp1190
a(S'cxxflags'
p1191
g2
(g3
g4
(lp1192
S'-fno-exceptions'
p1193
atp1194
Rp1195
tp1196
a(S'arduino_variants_dir'
p1197
S'/Applications/Arduino.app/Contents/Resources/Java/hardware/arduino/variants'
p1198
tp1199
a(S'serial'
p1200
S'/usr/local/bin/picocom'
p1201
tp1202
a(S'stty'
p1203
S'/bin/stty'
p1204
tp1205
a(S'version.txt'
p1206
S'/Applications/Arduino.app/Contents/Resources/Java/lib/version.txt'
p1207
tp1208
a(S'arduino_core_dir'
p1209
g1175
tp1210
a(S'boards.txt'
p1211
S'/Applications/Arduino.app/Contents/Resources/Java/hardware/arduino/boards.txt'
p1212
tp1213
a(S'avrdude.conf'
p1214
S'/Applications/Arduino.app/Contents/Resources/Java/hardware/tools/avr/etc/avrdude.conf'
p1215
tp1216
a(S'deps'
p1217
g2
(g3
g4
(lp1218
S'.build/uno/src/dependencies.d'
p1219
aS'.build/uno/arduino/dependencies.d'
p1220
aS'.build/uno/SPI/dependencies.d'
p1221
aS'.build/uno/SoftwareSerial/dependencies.d'
p1222
aS'.build/uno/RF24/dependencies.d'
p1223
aS'.build/uno/RFID/dependencies.d'
p1224
atp1225
Rp1226
tp1227
a.